target datalayout = "e-m:e-p270:32:32-p271:32:32-p272:64:64-i64:64-i128:128-f80:128-n8:16:32:64-S128"
target triple = "x86_64-pc-linux-gnu"

%"class.std::__shared_count" = type { ptr }
%"struct.cv::Ptr.208" = type { %"class.std::shared_ptr.209" }
%"class.std::shared_ptr.209" = type { %"class.std::__shared_ptr.210" }
%"class.std::__shared_ptr.210" = type { ptr, %"class.std::__shared_count" }
%"struct.cv::dnn::TanFunctor" = type { i8 }
%"struct.cv::has_custom_delete.382" = type { i8 }
%"class.std::_Sp_counted_base" = type { ptr, i32, i32 }
%"class.std::_Sp_counted_ptr.383" = type { %"class.std::_Sp_counted_base", ptr }

; Function Attrs: mustprogress nounwind uwtable
define linkonce_odr hidden void @_ZNSt16_Sp_counted_baseILN9__gnu_cxx12_Lock_policyE2EEC2Ev(ptr noundef nonnull align 8 dereferenceable(16) %0) unnamed_addr #7 comdat align 2 {
  %2 = alloca ptr, align 8
  store ptr %0, ptr %2, align 8, !tbaa !482
  %3 = load ptr, ptr %2, align 8
  store ptr getelementptr inbounds inrange(-16, 40) ({ [7 x ptr] }, ptr @_ZTVSt16_Sp_counted_baseILN9__gnu_cxx12_Lock_policyE2EE, i32 0, i32 0, i32 2), ptr %3, align 8, !tbaa !42
  %4 = getelementptr inbounds nuw %"class.std::_Sp_counted_base", ptr %3, i32 0, i32 1
  store i32 1, ptr %4, align 8, !tbaa !489
  %5 = getelementptr inbounds nuw %"class.std::_Sp_counted_base", ptr %3, i32 0, i32 2
  store i32 1, ptr %5, align 4, !tbaa !491
  ret void
}

; Function Attrs: mustprogress nounwind uwtable
define linkonce_odr hidden void @_ZNSt15_Sp_counted_ptrIPN2cv3dnn16ElementWiseLayerINS1_10TanFunctorEEELN9__gnu_cxx12_Lock_policyE2EEC2ES5_(ptr noundef nonnull align 8 dereferenceable(24) %0, ptr noundef %1) unnamed_addr #7 comdat align 2 {
  %3 = alloca ptr, align 8
  %4 = alloca ptr, align 8
  store ptr %0, ptr %3, align 8, !tbaa !1551
  store ptr %1, ptr %4, align 8, !tbaa !307
  %5 = load ptr, ptr %3, align 8
  call void @_ZNSt16_Sp_counted_baseILN9__gnu_cxx12_Lock_policyE2EEC2Ev(ptr noundef nonnull align 8 dereferenceable(16) %5) #3
  store ptr getelementptr inbounds inrange(-16, 40) ({ [7 x ptr] }, ptr @_ZTVSt15_Sp_counted_ptrIPN2cv3dnn16ElementWiseLayerINS1_10TanFunctorEEELN9__gnu_cxx12_Lock_policyE2EE, i32 0, i32 0, i32 2), ptr %5, align 8, !tbaa !42
  %6 = getelementptr inbounds nuw %"class.std::_Sp_counted_ptr.383", ptr %5, i32 0, i32 1
  %7 = load ptr, ptr %4, align 8, !tbaa !307
  store ptr %7, ptr %6, align 8, !tbaa !1553
  ret void
}

; Function Attrs: mustprogress uwtable
define linkonce_odr hidden void @_ZNSt14__shared_countILN9__gnu_cxx12_Lock_policyE2EEC2IPN2cv3dnn16ElementWiseLayerINS5_10TanFunctorEEEEET_(ptr noundef nonnull align 8 dereferenceable(8) %0, ptr noundef %1) unnamed_addr #4 comdat align 2 personality ptr @__gxx_personality_v0 {
  %3 = alloca ptr, align 8
  %4 = alloca ptr, align 8
  %5 = alloca ptr, align 8
  %6 = alloca i32, align 4
  store ptr %0, ptr %3, align 8, !tbaa !477
  store ptr %1, ptr %4, align 8, !tbaa !307
  %7 = load ptr, ptr %3, align 8
  %8 = getelementptr inbounds nuw %"class.std::__shared_count", ptr %7, i32 0, i32 0
  store ptr null, ptr %8, align 8, !tbaa !479
  %9 = invoke noalias noundef nonnull ptr @_Znwm(i64 noundef 24) #23
          to label %10 unwind label %13

10:                                               ; preds = %2
  %11 = load ptr, ptr %4, align 8, !tbaa !307
  call void @_ZNSt15_Sp_counted_ptrIPN2cv3dnn16ElementWiseLayerINS1_10TanFunctorEEELN9__gnu_cxx12_Lock_policyE2EEC2ES5_(ptr noundef nonnull align 8 dereferenceable(24) %9, ptr noundef %11) #3
  %12 = getelementptr inbounds nuw %"class.std::__shared_count", ptr %7, i32 0, i32 0
  store ptr %9, ptr %12, align 8, !tbaa !479
  br label %32

13:                                               ; preds = %2
  %14 = landingpad { ptr, i32 }
          catch ptr null
  %15 = extractvalue { ptr, i32 } %14, 0
  store ptr %15, ptr %5, align 8
  %16 = extractvalue { ptr, i32 } %14, 1
  store i32 %16, ptr %6, align 4
  br label %17

17:                                               ; preds = %13
  %18 = load ptr, ptr %5, align 8
  %19 = call ptr @__cxa_begin_catch(ptr %18) #3
  %20 = load ptr, ptr %4, align 8, !tbaa !307
  %21 = icmp eq ptr %20, null
  br i1 %21, label %26, label %22

22:                                               ; preds = %17
  %23 = load ptr, ptr %20, align 8, !tbaa !42
  %24 = getelementptr inbounds ptr, ptr %23, i64 1
  %25 = load ptr, ptr %24, align 8
  call void %25(ptr noundef nonnull align 8 dereferenceable(101) %20) #3
  br label %26

26:                                               ; preds = %22, %17
  invoke void @__cxa_rethrow() #25
          to label %41 unwind label %27

27:                                               ; preds = %26
  %28 = landingpad { ptr, i32 }
          cleanup
  %29 = extractvalue { ptr, i32 } %28, 0
  store ptr %29, ptr %5, align 8
  %30 = extractvalue { ptr, i32 } %28, 1
  store i32 %30, ptr %6, align 4
  invoke void @__cxa_end_catch()
          to label %31 unwind label %38

31:                                               ; preds = %27
  br label %33

32:                                               ; preds = %10
  ret void

33:                                               ; preds = %31
  %34 = load ptr, ptr %5, align 8
  %35 = load i32, ptr %6, align 4
  %36 = insertvalue { ptr, i32 } poison, ptr %34, 0
  %37 = insertvalue { ptr, i32 } %36, i32 %35, 1
  resume { ptr, i32 } %37

38:                                               ; preds = %27
  %39 = landingpad { ptr, i32 }
          catch ptr null
  %40 = extractvalue { ptr, i32 } %39, 0
  call void @__clang_call_terminate(ptr %40) #26
  unreachable

41:                                               ; preds = %26
  unreachable
}

; Function Attrs: mustprogress nounwind uwtable
define linkonce_odr hidden void @_ZNSt12__shared_ptrIN2cv3dnn14dnn4_v202412238TanLayerELN9__gnu_cxx12_Lock_policyE2EE31_M_enable_shared_from_this_withINS1_16ElementWiseLayerINS1_10TanFunctorEEESA_EENSt9enable_ifIXntsr15__has_esft_baseIT0_EE5valueEvE4typeEPT_(ptr noundef nonnull align 8 dereferenceable(16) %0, ptr noundef %1) #7 comdat align 2 {
  %3 = alloca ptr, align 8
  %4 = alloca ptr, align 8
  store ptr %0, ptr %3, align 8, !tbaa !313
  store ptr %1, ptr %4, align 8, !tbaa !307
  ret void
}

; Function Attrs: mustprogress uwtable
define linkonce_odr hidden void @_ZNSt14__shared_countILN9__gnu_cxx12_Lock_policyE2EEC2IPN2cv3dnn16ElementWiseLayerINS5_10TanFunctorEEEEET_St17integral_constantIbLb0EE(ptr noundef nonnull align 8 dereferenceable(8) %0, ptr noundef %1) unnamed_addr #4 comdat align 2 {
  %3 = alloca ptr, align 8
  %4 = alloca ptr, align 8
  store ptr %0, ptr %3, align 8, !tbaa !477
  store ptr %1, ptr %4, align 8, !tbaa !307
  %5 = load ptr, ptr %3, align 8
  %6 = load ptr, ptr %4, align 8, !tbaa !307
  call void @_ZNSt14__shared_countILN9__gnu_cxx12_Lock_policyE2EEC2IPN2cv3dnn16ElementWiseLayerINS5_10TanFunctorEEEEET_(ptr noundef nonnull align 8 dereferenceable(8) %5, ptr noundef %6)
  ret void
}

; Function Attrs: mustprogress uwtable
define linkonce_odr hidden void @_ZNSt12__shared_ptrIN2cv3dnn14dnn4_v202412238TanLayerELN9__gnu_cxx12_Lock_policyE2EEC2INS1_16ElementWiseLayerINS1_10TanFunctorEEEvEEPT_(ptr noundef nonnull align 8 dereferenceable(16) %0, ptr noundef %1) unnamed_addr #4 comdat align 2 {
  %3 = alloca ptr, align 8
  %4 = alloca ptr, align 8
  store ptr %0, ptr %3, align 8, !tbaa !313
  store ptr %1, ptr %4, align 8, !tbaa !307
  %5 = load ptr, ptr %3, align 8
  %6 = getelementptr inbounds nuw %"class.std::__shared_ptr.210", ptr %5, i32 0, i32 0
  %7 = load ptr, ptr %4, align 8, !tbaa !307
  store ptr %7, ptr %6, align 8, !tbaa !1549
  %8 = getelementptr inbounds nuw %"class.std::__shared_ptr.210", ptr %5, i32 0, i32 1
  %9 = load ptr, ptr %4, align 8, !tbaa !307
  call void @_ZNSt14__shared_countILN9__gnu_cxx12_Lock_policyE2EEC2IPN2cv3dnn16ElementWiseLayerINS5_10TanFunctorEEEEET_St17integral_constantIbLb0EE(ptr noundef nonnull align 8 dereferenceable(8) %8, ptr noundef %9)
  %10 = load ptr, ptr %4, align 8, !tbaa !307
  call void @_ZNSt12__shared_ptrIN2cv3dnn14dnn4_v202412238TanLayerELN9__gnu_cxx12_Lock_policyE2EE31_M_enable_shared_from_this_withINS1_16ElementWiseLayerINS1_10TanFunctorEEESA_EENSt9enable_ifIXntsr15__has_esft_baseIT0_EE5valueEvE4typeEPT_(ptr noundef nonnull align 8 dereferenceable(16) %5, ptr noundef %10) #3
  ret void
}

; Function Attrs: mustprogress uwtable
define linkonce_odr hidden void @_ZNSt10shared_ptrIN2cv3dnn14dnn4_v202412238TanLayerEEC2INS1_16ElementWiseLayerINS1_10TanFunctorEEEvEEPT_(ptr noundef nonnull align 8 dereferenceable(16) %0, ptr noundef %1) unnamed_addr #4 comdat align 2 {
  %3 = alloca ptr, align 8
  %4 = alloca ptr, align 8
  store ptr %0, ptr %3, align 8, !tbaa !1547
  store ptr %1, ptr %4, align 8, !tbaa !307
  %5 = load ptr, ptr %3, align 8
  %6 = load ptr, ptr %4, align 8, !tbaa !307
  call void @_ZNSt12__shared_ptrIN2cv3dnn14dnn4_v202412238TanLayerELN9__gnu_cxx12_Lock_policyE2EEC2INS1_16ElementWiseLayerINS1_10TanFunctorEEEvEEPT_(ptr noundef nonnull align 8 dereferenceable(16) %5, ptr noundef %6)
  ret void
}

; Function Attrs: inlinehint mustprogress uwtable
define linkonce_odr hidden void @_ZN2cv3dnn14dnn4_v2024122315ActivationLayerC2Ev(ptr noundef nonnull align 8 dereferenceable(100) %0) unnamed_addr #6 comdat align 2 {
  %2 = alloca ptr, align 8
  store ptr %0, ptr %2, align 8, !tbaa !683
  %3 = load ptr, ptr %2, align 8
  call void @_ZN2cv3dnn14dnn4_v202412235LayerC2Ev(ptr noundef nonnull align 8 dereferenceable(100) %3)
  store ptr getelementptr inbounds inrange(-16, 288) ({ [38 x ptr] }, ptr @_ZTVN2cv3dnn14dnn4_v2024122315ActivationLayerE, i32 0, i32 0, i32 2), ptr %3, align 8, !tbaa !42
  ret void
}

; Function Attrs: mustprogress nounwind uwtable
define linkonce_odr hidden noundef ptr @_ZNKSt12__shared_ptrIN2cv3dnn14dnn4_v202412238TanLayerELN9__gnu_cxx12_Lock_policyE2EE3getEv(ptr noundef nonnull align 8 dereferenceable(16) %0) #7 comdat align 2 {
  %2 = alloca ptr, align 8
  store ptr %0, ptr %2, align 8, !tbaa !313
  %3 = load ptr, ptr %2, align 8
  %4 = getelementptr inbounds nuw %"class.std::__shared_ptr.210", ptr %3, i32 0, i32 0
  %5 = load ptr, ptr %4, align 8, !tbaa !1549
  ret ptr %5
}

; Function Attrs: inlinehint mustprogress uwtable
define linkonce_odr hidden void @_ZN2cv3PtrINS_3dnn14dnn4_v202412238TanLayerEEC2INS1_16ElementWiseLayerINS1_10TanFunctorEEEEERKSt17integral_constantIbLb0EEPT_(ptr noundef nonnull align 8 dereferenceable(16) %0, ptr noundef nonnull align 1 dereferenceable(1) %1, ptr noundef %2) unnamed_addr #6 comdat align 2 {
  %4 = alloca ptr, align 8
  %5 = alloca ptr, align 8
  %6 = alloca ptr, align 8
  store ptr %0, ptr %4, align 8, !tbaa !311
  store ptr %1, ptr %5, align 8, !tbaa !743
  store ptr %2, ptr %6, align 8, !tbaa !307
  %7 = load ptr, ptr %4, align 8
  %8 = load ptr, ptr %6, align 8, !tbaa !307
  call void @_ZNSt10shared_ptrIN2cv3dnn14dnn4_v202412238TanLayerEEC2INS1_16ElementWiseLayerINS1_10TanFunctorEEEvEEPT_(ptr noundef nonnull align 8 dereferenceable(16) %7, ptr noundef %8)
  ret void
}

; Function Attrs: inlinehint mustprogress uwtable
define linkonce_odr hidden void @_ZN2cv3dnn14dnn4_v202412238TanLayerC2Ev(ptr noundef nonnull align 8 dereferenceable(100) %0) unnamed_addr #6 comdat align 2 {
  %2 = alloca ptr, align 8
  store ptr %0, ptr %2, align 8, !tbaa !1529
  %3 = load ptr, ptr %2, align 8
  call void @_ZN2cv3dnn14dnn4_v2024122315ActivationLayerC2Ev(ptr noundef nonnull align 8 dereferenceable(100) %3)
  store ptr getelementptr inbounds inrange(-16, 288) ({ [38 x ptr] }, ptr @_ZTVN2cv3dnn14dnn4_v202412238TanLayerE, i32 0, i32 0, i32 2), ptr %3, align 8, !tbaa !42
  ret void
}

; Function Attrs: mustprogress nounwind uwtable
define linkonce_odr hidden noundef ptr @_ZNK2cv3PtrINS_3dnn14dnn4_v202412238TanLayerEEptEv(ptr noundef nonnull align 8 dereferenceable(16) %0) #7 comdat align 2 {
  %2 = alloca ptr, align 8
  store ptr %0, ptr %2, align 8, !tbaa !311
  %3 = load ptr, ptr %2, align 8
  %4 = call noundef ptr @_ZNKSt12__shared_ptrIN2cv3dnn14dnn4_v202412238TanLayerELN9__gnu_cxx12_Lock_policyE2EE3getEv(ptr noundef nonnull align 8 dereferenceable(16) %3) #3
  ret ptr %4
}

; Function Attrs: inlinehint mustprogress uwtable
define linkonce_odr hidden void @_ZN2cv3PtrINS_3dnn14dnn4_v202412238TanLayerEEC2INS1_16ElementWiseLayerINS1_10TanFunctorEEEEEPT_(ptr noundef nonnull align 8 dereferenceable(16) %0, ptr noundef %1) unnamed_addr #6 comdat align 2 {
  %3 = alloca ptr, align 8
  %4 = alloca ptr, align 8
  %5 = alloca %"struct.cv::has_custom_delete.382", align 1
  store ptr %0, ptr %3, align 8, !tbaa !311
  store ptr %1, ptr %4, align 8, !tbaa !307
  %6 = load ptr, ptr %3, align 8
  call void @llvm.lifetime.start.p0(i64 1, ptr %5) #3
  %7 = load ptr, ptr %4, align 8, !tbaa !307
  call void @_ZN2cv3PtrINS_3dnn14dnn4_v202412238TanLayerEEC2INS1_16ElementWiseLayerINS1_10TanFunctorEEEEERKSt17integral_constantIbLb0EEPT_(ptr noundef nonnull align 8 dereferenceable(16) %6, ptr noundef nonnull align 1 dereferenceable(1) %5, ptr noundef %7)
  call void @llvm.lifetime.end.p0(i64 1, ptr %5) #3
  ret void
}

; Function Attrs: mustprogress uwtable
define linkonce_odr hidden void @_ZN2cv3dnn16ElementWiseLayerINS0_10TanFunctorEEC2ERKS2_(ptr noundef nonnull align 8 dereferenceable(101) %0, ptr noundef nonnull align 1 dereferenceable(1) %1) unnamed_addr #4 comdat align 2 {
  %3 = alloca ptr, align 8
  %4 = alloca ptr, align 8
  store ptr %0, ptr %3, align 8, !tbaa !307
  store ptr %1, ptr %4, align 8, !tbaa !309
  %5 = load ptr, ptr %3, align 8
  call void @_ZN2cv3dnn14dnn4_v202412238TanLayerC2Ev(ptr noundef nonnull align 8 dereferenceable(100) %5)
  store ptr getelementptr inbounds inrange(-16, 288) ({ [38 x ptr] }, ptr @_ZTVN2cv3dnn16ElementWiseLayerINS0_10TanFunctorEEE, i32 0, i32 0, i32 2), ptr %5, align 8, !tbaa !42
  ret void
}

; Function Attrs: mustprogress uwtable
define void @_ZN2cv3dnn14dnn4_v202412238TanLayer6createERKNS1_11LayerParamsE(ptr dead_on_unwind noalias writable sret(%"struct.cv::Ptr.208") align 8 %0, ptr noundef nonnull align 8 dereferenceable(136) %1) #4 align 2 personality ptr @__gxx_personality_v0 {
  %3 = alloca ptr, align 8
  %4 = alloca ptr, align 8
  %5 = alloca i1, align 1
  %6 = alloca %"struct.cv::dnn::TanFunctor", align 1
  %7 = alloca ptr, align 8
  %8 = alloca i32, align 4
  %9 = alloca i1, align 1
  store ptr %0, ptr %3, align 8
  store ptr %1, ptr %4, align 8, !tbaa !3
  store i1 false, ptr %5, align 1
  %10 = call noalias noundef nonnull ptr @_Znwm(i64 noundef 104) #23
  store i1 true, ptr %9, align 1
  call void @llvm.lifetime.start.p0(i64 1, ptr %6) #3
  invoke void @_ZN2cv3dnn16ElementWiseLayerINS0_10TanFunctorEEC2ERKS2_(ptr noundef nonnull align 8 dereferenceable(101) %10, ptr noundef nonnull align 1 dereferenceable(1) %6)
          to label %11 unwind label %17

11:                                               ; preds = %2
  store i1 false, ptr %9, align 1
  invoke void @_ZN2cv3PtrINS_3dnn14dnn4_v202412238TanLayerEEC2INS1_16ElementWiseLayerINS1_10TanFunctorEEEEEPT_(ptr noundef nonnull align 8 dereferenceable(16) %0, ptr noundef %10)
          to label %12 unwind label %17

12:                                               ; preds = %11
  call void @llvm.lifetime.end.p0(i64 1, ptr %6) #3
  %13 = call noundef ptr @_ZNK2cv3PtrINS_3dnn14dnn4_v202412238TanLayerEEptEv(ptr noundef nonnull align 8 dereferenceable(16) %0) #3
  %14 = load ptr, ptr %4, align 8, !tbaa !3
  invoke void @_ZN2cv3dnn14dnn4_v202412235Layer13setParamsFromERKNS1_11LayerParamsE(ptr noundef nonnull align 8 dereferenceable(100) %13, ptr noundef nonnull align 8 dereferenceable(136) %14)
          to label %15 unwind label %24

15:                                               ; preds = %12
  store i1 true, ptr %5, align 1
  %16 = load i1, ptr %5, align 1
  br i1 %16, label %29, label %28

17:                                               ; preds = %11, %2
  %18 = landingpad { ptr, i32 }
          cleanup
  %19 = extractvalue { ptr, i32 } %18, 0
  store ptr %19, ptr %7, align 8
  %20 = extractvalue { ptr, i32 } %18, 1
  store i32 %20, ptr %8, align 4
  call void @llvm.lifetime.end.p0(i64 1, ptr %6) #3
  %21 = load i1, ptr %9, align 1
  br i1 %21, label %22, label %23

22:                                               ; preds = %17
  call void @_ZdlPv(ptr noundef %10) #24
  br label %23

23:                                               ; preds = %22, %17
  br label %30

24:                                               ; preds = %12
  %25 = landingpad { ptr, i32 }
          cleanup
  %26 = extractvalue { ptr, i32 } %25, 0
  store ptr %26, ptr %7, align 8
  %27 = extractvalue { ptr, i32 } %25, 1
  store i32 %27, ptr %8, align 4
  call void @_ZNSt12__shared_ptrIN2cv3dnn14dnn4_v202412238TanLayerELN9__gnu_cxx12_Lock_policyE2EED2Ev(ptr noundef nonnull align 8 dereferenceable(16) %0) #3
  br label %30

28:                                               ; preds = %15
  call void @_ZNSt12__shared_ptrIN2cv3dnn14dnn4_v202412238TanLayerELN9__gnu_cxx12_Lock_policyE2EED2Ev(ptr noundef nonnull align 8 dereferenceable(16) %0) #3
  br label %29

29:                                               ; preds = %28, %15
  ret void

30:                                               ; preds = %24, %23
  %31 = load ptr, ptr %7, align 8
  %32 = load i32, ptr %8, align 4
  %33 = insertvalue { ptr, i32 } poison, ptr %31, 0
  %34 = insertvalue { ptr, i32 } %33, i32 %32, 1
  resume { ptr, i32 } %34
}